(dp1
S'output'
p2
S"<class '__main__.PyInstallerImportError'> Failed to load dynlib/dll 'E:\\\\ssd\\\\7semester\\\\SOFTWARE EVOLUTION & MAINTENANCE\\\\project\\\\web2py\\\\version'. Most probably this dynlib/dll was not found when the application was frozen."
p3
sS'layer'
p4
S'E:\\ssd\\7semester\\SOFTWARE EVOLUTION & MAINTENANCE\\project\\web2py\\applications\\admin\\controllers/default.py'
p5
sS'code'
p6
S'<code object <module> at 0000019CB6EA9230, file "E:\\ssd\\7semester\\SOFTWARE EVOLUTION & MAINTENANCE\\project\\web2py\\applications\\admin\\controllers/default.py", line 3>'
p7
sS'snapshot'
p8
(dp9
S'exception'
p10
(dp11
S'__module__'
p12
S"'__main__'"
p13
sS'__getslice__'
p14
S"<method-wrapper '__getslice__' of PyInstallerImportError object>"
p15
sS'__str__'
p16
S"<method-wrapper '__str__' of PyInstallerImportError object>"
p17
sS'__reduce__'
p18
S'<built-in method __reduce__ of PyInstallerImportError object>'
p19
sS'__dict__'
p20
S'{\'msg\': r"Failed to load dynlib/dll \'E:\\\\ssd\\\\7semester\\\\S...ll was not found when the application was frozen."}'
p21
sS'__sizeof__'
p22
S'<built-in method __sizeof__ of PyInstallerImportError object>'
p23
sS'__weakref__'
p24
S'None'
p25
sS'message'
p26
S"''"
p27
sS'__init__'
p28
S'<bound method PyInstallerImportError.__init__ of...as not found when the application was frozen.",)>'
p29
sS'__setattr__'
p30
S"<method-wrapper '__setattr__' of PyInstallerImportError object>"
p31
sS'__reduce_ex__'
p32
S'<built-in method __reduce_ex__ of PyInstallerImportError object>'
p33
sS'__new__'
p34
S'<built-in method __new__ of type object>'
p35
sS'errno'
p36
S'None'
p37
sS'__format__'
p38
S'<built-in method __format__ of PyInstallerImportError object>'
p39
sS'__class__'
p40
S"<class '__main__.PyInstallerImportError'>"
p41
sS'filename'
p42
S'None'
p43
sS'msg'
p44
S'r"Failed to load dynlib/dll \'E:\\\\ssd\\\\7semester\\\\S...ll was not found when the application was frozen."'
p45
sS'__doc__'
p46
S'None'
p47
sS'__getitem__'
p48
S"<method-wrapper '__getitem__' of PyInstallerImportError object>"
p49
sS'__setstate__'
p50
S'<built-in method __setstate__ of PyInstallerImportError object>'
p51
sS'__getattribute__'
p52
S"<method-wrapper '__getattribute__' of PyInstallerImportError object>"
p53
sS'args'
p54
S'(r"Failed to load dynlib/dll \'E:\\\\ssd\\\\7semester\\\\S...ll was not found when the application was frozen.",)'
p55
sS'__subclasshook__'
p56
S'<built-in method __subclasshook__ of type object>'
p57
sS'__unicode__'
p58
S'<built-in method __unicode__ of PyInstallerImportError object>'
p59
sS'strerror'
p60
S'None'
p61
sS'__delattr__'
p62
S"<method-wrapper '__delattr__' of PyInstallerImportError object>"
p63
sS'__repr__'
p64
S"<method-wrapper '__repr__' of PyInstallerImportError object>"
p65
sS'__hash__'
p66
S"<method-wrapper '__hash__' of PyInstallerImportError object>"
p67
ssS'evalue'
p68
S"Failed to load dynlib/dll 'E:\\\\ssd\\\\7semester\\\\SOFTWARE EVOLUTION & MAINTENANCE\\\\project\\\\web2py\\\\version'. Most probably this dynlib/dll was not found when the application was frozen."
p69
sS'request'
p70
cgluon.html
XML_unpickle
p71
(S's\x81\\\x00\x00<div><table><tr><td style="font-weight:bold;vertical-align:top;">ajax</td><td style="vertical-align:top;">:</td><td><div>True</div></td></tr><tr><td style="font-weight:bold;vertical-align:top;">application</td><td style="vertical-align:top;">:</td><td><div>admin</div></td></tr><tr><td style="font-weight:bold;vertical-align:top;">args</td><td style="vertical-align:top;">:</td><td><div><table></table></div></td></tr><tr><td style="font-weight:bold;vertical-align:top;">cid</td><td style="vertical-align:top;">:</td><td><div>None</div></td></tr><tr><td style="font-weight:bold;vertical-align:top;">client</td><td style="vertical-align:top;">:</td><td><div>127.0.0.1</div></td></tr><tr><td style="font-weight:bold;vertical-align:top;">controller</td><td style="vertical-align:top;">:</td><td><div>default</div></td></tr><tr><td style="font-weight:bold;vertical-align:top;">cookies</td><td style="vertical-align:top;">:</td><td><div><table><tr><td style="font-weight:bold;vertical-align:top;">session_id_admin</td><td style="vertical-align:top;">:</td><td><div>127.0.0.1-ccf947ea-7434-4596-bf84-41c6f44517d6<table><tr><td style="font-weight:bold;vertical-align:top;">comment</td><td style="vertical-align:top;">:</td><td><div></div></td></tr><tr><td style="font-weight:bold;vertical-align:top;">domain</td><td style="vertical-align:top;">:</td><td><div></div></td></tr><tr><td style="font-weight:bold;vertical-align:top;">expires</td><td style="vertical-align:top;">:</td><td><div></div></td></tr><tr><td style="font-weight:bold;vertical-align:top;">httponly</td><td style="vertical-align:top;">:</td><td><div></div></td></tr><tr><td style="font-weight:bold;vertical-align:top;">max-age</td><td style="vertical-align:top;">:</td><td><div></div></td></tr><tr><td style="font-weight:bold;vertical-align:top;">path</td><td style="vertical-align:top;">:</td><td><div></div></td></tr><tr><td style="font-weight:bold;vertical-align:top;">samesite</td><td style="vertical-align:top;">:</td><td><div></div></td></tr><tr><td style="font-weight:bold;vertical-align:top;">secure</td><td style="vertical-align:top;">:</td><td><div></div></td></tr><tr><td style="font-weight:bold;vertical-align:top;">version</td><td style="vertical-align:top;">:</td><td><div></div></td></tr></table></div></td></tr><tr><td style="font-weight:bold;vertical-align:top;">session_id_welcome</td><td style="vertical-align:top;">:</td><td><div>127.0.0.1-aff8277f-9811-4a8f-ab9b-3c6b36ddcfac<table><tr><td style="font-weight:bold;vertical-align:top;">comment</td><td style="vertical-align:top;">:</td><td><div></div></td></tr><tr><td style="font-weight:bold;vertical-align:top;">domain</td><td style="vertical-align:top;">:</td><td><div></div></td></tr><tr><td style="font-weight:bold;vertical-align:top;">expires</td><td style="vertical-align:top;">:</td><td><div></div></td></tr><tr><td style="font-weight:bold;vertical-align:top;">httponly</td><td style="vertical-align:top;">:</td><td><div></div></td></tr><tr><td style="font-weight:bold;vertical-align:top;">max-age</td><td style="vertical-align:top;">:</td><td><div></div></td></tr><tr><td style="font-weight:bold;vertical-align:top;">path</td><td style="vertical-align:top;">:</td><td><div></div></td></tr><tr><td style="font-weight:bold;vertical-align:top;">samesite</td><td style="vertical-align:top;">:</td><td><div></div></td></tr><tr><td style="font-weight:bold;vertical-align:top;">secure</td><td style="vertical-align:top;">:</td><td><div></div></td></tr><tr><td style="font-weight:bold;vertical-align:top;">version</td><td style="vertical-align:top;">:</td><td><div></div></td></tr></table></div></td></tr></table></div></td></tr><tr><td style="font-weight:bold;vertical-align:top;">env</td><td style="vertical-align:top;">:</td><td><div><table><tr><td style="font-weight:bold;vertical-align:top;">CONTENT_LENGTH</td><td style="vertical-align:top;">:</td><td><div>0</div></td></tr><tr><td style="font-weight:bold;vertical-align:top;">HTTP_ACCEPT</td><td style="vertical-align:top;">:</td><td><div>*/*</div></td></tr><tr><td style="font-weight:bold;vertical-align:top;">HTTP_ACCEPT_ENCODING</td><td style="vertical-align:top;">:</td><td><div>gzip, deflate, br, zstd</div></td></tr><tr><td style="font-weight:bold;vertical-align:top;">HTTP_ACCEPT_LANGUAGE</td><td style="vertical-align:top;">:</td><td><div>en-US,en;q=0.5</div></td></tr><tr><td style="font-weight:bold;vertical-align:top;">HTTP_CONNECTION</td><td style="vertical-align:top;">:</td><td><div>keep-alive</div></td></tr><tr><td style="font-weight:bold;vertical-align:top;">HTTP_CONTENT_LENGTH</td><td style="vertical-align:top;">:</td><td><div>0</div></td></tr><tr><td style="font-weight:bold;vertical-align:top;">HTTP_COOKIE</td><td style="vertical-align:top;">:</td><td><div>session_id_welcome=127.0.0.1-aff8277f-9811-4a8f-ab9b-3c6b36ddcfac; session_id_admin=127.0.0.1-ccf947ea-7434-4596-bf84-41c6f44517d6</div></td></tr><tr><td style="font-weight:bold;vertical-align:top;">HTTP_HOST</td><td style="vertical-align:top;">:</td><td><div>127.0.0.1:8000</div></td></tr><tr><td style="font-weight:bold;vertical-align:top;">HTTP_ORIGIN</td><td style="vertical-align:top;">:</td><td><div>http://127.0.0.1:8000</div></td></tr><tr><td style="font-weight:bold;vertical-align:top;">HTTP_REFERER</td><td style="vertical-align:top;">:</td><td><div>http://127.0.0.1:8000/admin/default/site</div></td></tr><tr><td style="font-weight:bold;vertical-align:top;">HTTP_SEC_FETCH_DEST</td><td style="vertical-align:top;">:</td><td><div>empty</div></td></tr><tr><td style="font-weight:bold;vertical-align:top;">HTTP_SEC_FETCH_MODE</td><td style="vertical-align:top;">:</td><td><div>cors</div></td></tr><tr><td style="font-weight:bold;vertical-align:top;">HTTP_SEC_FETCH_SITE</td><td style="vertical-align:top;">:</td><td><div>same-origin</div></td></tr><tr><td style="font-weight:bold;vertical-align:top;">HTTP_USER_AGENT</td><td style="vertical-align:top;">:</td><td><div>Mozilla/5.0 (Windows NT 10.0; Win64; x64; rv:133.0) Gecko/20100101 Firefox/133.0</div></td></tr><tr><td style="font-weight:bold;vertical-align:top;">HTTP_X_REQUESTED_WITH</td><td style="vertical-align:top;">:</td><td><div>XMLHttpRequest</div></td></tr><tr><td style="font-weight:bold;vertical-align:top;">PATH_INFO</td><td style="vertical-align:top;">:</td><td><div>/admin/default/check_version</div></td></tr><tr><td style="font-weight:bold;vertical-align:top;">QUERY_STRING</td><td style="vertical-align:top;">:</td><td><div></div></td></tr><tr><td style="font-weight:bold;vertical-align:top;">REMOTE_ADDR</td><td style="vertical-align:top;">:</td><td><div>127.0.0.1</div></td></tr><tr><td style="font-weight:bold;vertical-align:top;">REMOTE_PORT</td><td style="vertical-align:top;">:</td><td><div>51606</div></td></tr><tr><td style="font-weight:bold;vertical-align:top;">REQUEST_METHOD</td><td style="vertical-align:top;">:</td><td><div>POST</div></td></tr><tr><td style="font-weight:bold;vertical-align:top;">SCRIPT_NAME</td><td style="vertical-align:top;">:</td><td><div></div></td></tr><tr><td style="font-weight:bold;vertical-align:top;">SERVER_NAME</td><td style="vertical-align:top;">:</td><td><div>DESKTOP-DNURG61</div></td></tr><tr><td style="font-weight:bold;vertical-align:top;">SERVER_PORT</td><td style="vertical-align:top;">:</td><td><div>8000</div></td></tr><tr><td style="font-weight:bold;vertical-align:top;">SERVER_PROTOCOL</td><td style="vertical-align:top;">:</td><td><div>HTTP/1.1</div></td></tr><tr><td style="font-weight:bold;vertical-align:top;">SERVER_SOFTWARE</td><td style="vertical-align:top;">:</td><td><div>Rocket 1.2.6</div></td></tr><tr><td style="font-weight:bold;vertical-align:top;">app_folders</td><td style="vertical-align:top;">:</td><td><div>set([&#x27;E:\\\\ssd\\\\7semester\\\\SOFTWARE EVOLUTION &amp; MAINTENANCE\\\\project\\\\web2py\\\\applications\\\\welcome&#x27;, &#x27;E:\\\\ssd\\\\7semester\\\\SOFTWARE EVOLUTION &amp; MAINTENANCE\\\\project\\\\web2py\\\\applications\\\\admin&#x27;])</div></td></tr><tr><td style="font-weight:bold;vertical-align:top;">applications_parent</td><td style="vertical-align:top;">:</td><td><div>E:\\ssd\\7semester\\SOFTWARE EVOLUTION &amp; MAINTENANCE\\project\\web2py</div></td></tr><tr><td style="font-weight:bold;vertical-align:top;">cmd_options</td><td style="vertical-align:top;">:</td><td><div>Namespace(add_options=False, args=[], bpython=False, ca_cert=None, config=None, cron_job=False, cron_run=False, cron_threads=None, crontabs=[], errors_to_console=False, fake_migrate=False, folder=&#x27;E:\\\\ssd\\\\7semester\\\\SOFTWARE EVOLUTION &amp; MAINTENANCE\\\\project\\\\web2py&#x27;, force_migrate=False, gae=None, import_models=False, interfaces=[], ip=&#x27;127.0.0.1&#x27;, log_filename=&#x27;httpserver.log&#x27;, log_level=30, max_threads=None, min_threads=None, no_banner=False, no_gui=False, password=&#x27;******&#x27;, pid_filename=&#x27;httpserver.pid&#x27;, plain=False, port=8000, profiler_dir=None, quiet=False, request_queue_size=5, run=None, run_doctests=None, run_system_tests=False, schedulers=[], server_cert=None, server_key=None, server_name=&#x27;DESKTOP-DNURG61&#x27;, shell=None, shutdown_timeout=None, socket_timeout=5, soft_cron=False, taskbar=False, timeout=10, verbose=False, with_coverage=False, with_cron=False, with_scheduler=False)</div></td></tr><tr><td style="font-weight:bold;vertical-align:top;">content_length</td><td style="vertical-align:top;">:</td><td><div>0</div></td></tr><tr><td style="font-weight:bold;vertical-align:top;">db_sessions</td><td style="vertical-align:top;">:</td><td><div>set([])</div></td></tr><tr><td style="font-weight:bold;vertical-align:top;">debugging</td><td style="vertical-align:top;">:</td><td><div>False</div></td></tr><tr><td style="font-weight:bold;vertical-align:top;">gluon_parent</td><td style="vertical-align:top;">:</td><td><div>E:\\ssd\\7semester\\SOFTWARE EVOLUTION &amp; MAINTENANCE\\project\\web2py</div></td></tr><tr><td style="font-weight:bold;vertical-align:top;">http_accept</td><td style="vertical-align:top;">:</td><td><div>*/*</div></td></tr><tr><td style="font-weight:bold;vertical-align:top;">http_accept_encoding</td><td style="vertical-align:top;">:</td><td><div>gzip, deflate, br, zstd</div></td></tr><tr><td style="font-weight:bold;vertical-align:top;">http_accept_language</td><td style="vertical-align:top;">:</td><td><div>en-US,en;q=0.5</div></td></tr><tr><td style="font-weight:bold;vertical-align:top;">http_connection</td><td style="vertical-align:top;">:</td><td><div>keep-alive</div></td></tr><tr><td style="font-weight:bold;vertical-align:top;">http_content_length</td><td style="vertical-align:top;">:</td><td><div>0</div></td></tr><tr><td style="font-weight:bold;vertical-align:top;">http_cookie</td><td style="vertical-align:top;">:</td><td><div>session_id_welcome=127.0.0.1-aff8277f-9811-4a8f-ab9b-3c6b36ddcfac; session_id_admin=127.0.0.1-ccf947ea-7434-4596-bf84-41c6f44517d6</div></td></tr><tr><td style="font-weight:bold;vertical-align:top;">http_host</td><td style="vertical-align:top;">:</td><td><div>127.0.0.1:8000</div></td></tr><tr><td style="font-weight:bold;vertical-align:top;">http_origin</td><td style="vertical-align:top;">:</td><td><div>http://127.0.0.1:8000</div></td></tr><tr><td style="font-weight:bold;vertical-align:top;">http_referer</td><td style="vertical-align:top;">:</td><td><div>http://127.0.0.1:8000/admin/default/site</div></td></tr><tr><td style="font-weight:bold;vertical-align:top;">http_sec_fetch_dest</td><td style="vertical-align:top;">:</td><td><div>empty</div></td></tr><tr><td style="font-weight:bold;vertical-align:top;">http_sec_fetch_mode</td><td style="vertical-align:top;">:</td><td><div>cors</div></td></tr><tr><td style="font-weight:bold;vertical-align:top;">http_sec_fetch_site</td><td style="vertical-align:top;">:</td><td><div>same-origin</div></td></tr><tr><td style="font-weight:bold;vertical-align:top;">http_user_agent</td><td style="vertical-align:top;">:</td><td><div>Mozilla/5.0 (Windows NT 10.0; Win64; x64; rv:133.0) Gecko/20100101 Firefox/133.0</div></td></tr><tr><td style="font-weight:bold;vertical-align:top;">http_x_requested_with</td><td style="vertical-align:top;">:</td><td><div>XMLHttpRequest</div></td></tr><tr><td style="font-weight:bold;vertical-align:top;">is_jython</td><td style="vertical-align:top;">:</td><td><div>False</div></td></tr><tr><td style="font-weight:bold;vertical-align:top;">is_py2</td><td style="vertical-align:top;">:</td><td><div>True</div></td></tr><tr><td style="font-weight:bold;vertical-align:top;">is_pypy</td><td style="vertical-align:top;">:</td><td><div>False</div></td></tr><tr><td style="font-weight:bold;vertical-align:top;">is_source</td><td style="vertical-align:top;">:</td><td><div>False</div></td></tr><tr><td style="font-weight:bold;vertical-align:top;">local_hosts</td><td style="vertical-align:top;">:</td><td><div><table><tr><td><div>DESKTOP-DNURG61</div></td></tr><tr><td><div>fe80::5d70:4322:972b:e9ea%17</div></td></tr><tr><td><div>::ffff:127.0.0.1</div></td></tr><tr><td><div>::1</div></td></tr><tr><td><div>192.168.28.199</div></td></tr><tr><td><div>fe80::ec4f:f4d0:4e22:111b%16</div></td></tr><tr><td><div>127.0.0.1</div></td></tr><tr><td><div>192.168.56.1</div></td></tr></table></div></td></tr><tr><td style="font-weight:bold;vertical-align:top;">path_info</td><td style="vertical-align:top;">:</td><td><div>/admin/default/check_version</div></td></tr><tr><td style="font-weight:bold;vertical-align:top;">query_string</td><td style="vertical-align:top;">:</td><td><div></div></td></tr><tr><td style="font-weight:bold;vertical-align:top;">remote_addr</td><td style="vertical-align:top;">:</td><td><div>127.0.0.1</div></td></tr><tr><td style="font-weight:bold;vertical-align:top;">remote_port</td><td style="vertical-align:top;">:</td><td><div>51606</div></td></tr><tr><td style="font-weight:bold;vertical-align:top;">request_method</td><td style="vertical-align:top;">:</td><td><div>POST</div></td></tr><tr><td style="font-weight:bold;vertical-align:top;">request_uri</td><td style="vertical-align:top;">:</td><td><div>/admin/default/check_version</div></td></tr><tr><td style="font-weight:bold;vertical-align:top;">script_name</td><td style="vertical-align:top;">:</td><td><div></div></td></tr><tr><td style="font-weight:bold;vertical-align:top;">server_name</td><td style="vertical-align:top;">:</td><td><div>DESKTOP-DNURG61</div></td></tr><tr><td style="font-weight:bold;vertical-align:top;">server_port</td><td style="vertical-align:top;">:</td><td><div>8000</div></td></tr><tr><td style="font-weight:bold;vertical-align:top;">server_protocol</td><td style="vertical-align:top;">:</td><td><div>HTTP/1.1</div></td></tr><tr><td style="font-weight:bold;vertical-align:top;">server_software</td><td style="vertical-align:top;">:</td><td><div>Rocket 1.2.6</div></td></tr><tr><td style="font-weight:bold;vertical-align:top;">web2py_path</td><td style="vertical-align:top;">:</td><td><div>E:\\ssd\\7semester\\SOFTWARE EVOLUTION &amp; MAINTENANCE\\project\\web2py</div></td></tr><tr><td style="font-weight:bold;vertical-align:top;">web2py_version</td><td style="vertical-align:top;">:</td><td><div>2.27.1-stable+timestamp.2024.09.09.05.05.15</div></td></tr><tr><td style="font-weight:bold;vertical-align:top;">wsgi.errors</td><td style="vertical-align:top;">:</td><td><div>&lt;open file &#x27;&lt;stderr&gt;&#x27;, mode &#x27;w&#x27; at 0x0000019CB4CBB150&gt;</div></td></tr><tr><td style="font-weight:bold;vertical-align:top;">wsgi.file_wrapper</td><td style="vertical-align:top;">:</td><td><div>&lt;class wsgiref.util.FileWrapper at 0x0000019CB6068528&gt;</div></td></tr><tr><td style="font-weight:bold;vertical-align:top;">wsgi.input</td><td style="vertical-align:top;">:</td><td><div>&lt;socket._fileobject object at 0x0000019CBA3D4C78&gt;</div></td></tr><tr><td style="font-weight:bold;vertical-align:top;">wsgi.multiprocess</td><td style="vertical-align:top;">:</td><td><div>False</div></td></tr><tr><td style="font-weight:bold;vertical-align:top;">wsgi.multithread</td><td style="vertical-align:top;">:</td><td><div>True</div></td></tr><tr><td style="font-weight:bold;vertical-align:top;">wsgi.run_once</td><td style="vertical-align:top;">:</td><td><div>False</div></td></tr><tr><td style="font-weight:bold;vertical-align:top;">wsgi.url_scheme</td><td style="vertical-align:top;">:</td><td><div>http</div></td></tr><tr><td style="font-weight:bold;vertical-align:top;">wsgi.version</td><td style="vertical-align:top;">:</td><td><div><table><tr><td><div>1</div></td></tr><tr><td><div>0</div></td></tr></table></div></td></tr><tr><td style="font-weight:bold;vertical-align:top;">wsgi_errors</td><td style="vertical-align:top;">:</td><td><div>&lt;open file &#x27;&lt;stderr&gt;&#x27;, mode &#x27;w&#x27; at 0x0000019CB4CBB150&gt;</div></td></tr><tr><td style="font-weight:bold;vertical-align:top;">wsgi_file_wrapper</td><td style="vertical-align:top;">:</td><td><div>&lt;class wsgiref.util.FileWrapper at 0x0000019CB6068528&gt;</div></td></tr><tr><td style="font-weight:bold;vertical-align:top;">wsgi_input</td><td style="vertical-align:top;">:</td><td><div>&lt;socket._fileobject object at 0x0000019CBA3D4C78&gt;</div></td></tr><tr><td style="font-weight:bold;vertical-align:top;">wsgi_multiprocess</td><td style="vertical-align:top;">:</td><td><div>False</div></td></tr><tr><td style="font-weight:bold;vertical-align:top;">wsgi_multithread</td><td style="vertical-align:top;">:</td><td><div>True</div></td></tr><tr><td style="font-weight:bold;vertical-align:top;">wsgi_run_once</td><td style="vertical-align:top;">:</td><td><div>False</div></td></tr><tr><td style="font-weight:bold;vertical-align:top;">wsgi_url_scheme</td><td style="vertical-align:top;">:</td><td><div>http</div></td></tr><tr><td style="font-weight:bold;vertical-align:top;">wsgi_version</td><td style="vertical-align:top;">:</td><td><div><table><tr><td><div>1</div></td></tr><tr><td><div>0</div></td></tr></table></div></td></tr></table></div></td></tr><tr><td style="font-weight:bold;vertical-align:top;">extension</td><td style="vertical-align:top;">:</td><td><div>html</div></td></tr><tr><td style="font-weight:bold;vertical-align:top;">folder</td><td style="vertical-align:top;">:</td><td><div>E:\\ssd\\7semester\\SOFTWARE EVOLUTION &amp; MAINTENANCE\\project\\web2py\\applications\\admin</div></td></tr><tr><td style="font-weight:bold;vertical-align:top;">function</td><td style="vertical-align:top;">:</td><td><div>check_version</div></td></tr><tr><td style="font-weight:bold;vertical-align:top;">global_settings</td><td style="vertical-align:top;">:</td><td><div><table><tr><td style="font-weight:bold;vertical-align:top;">app_folders</td><td style="vertical-align:top;">:</td><td><div>set([&#x27;E:\\\\ssd\\\\7semester\\\\SOFTWARE EVOLUTION &amp; MAINTENANCE\\\\project\\\\web2py\\\\applications\\\\welcome&#x27;, &#x27;E:\\\\ssd\\\\7semester\\\\SOFTWARE EVOLUTION &amp; MAINTENANCE\\\\project\\\\web2py\\\\applications\\\\admin&#x27;])</div></td></tr><tr><td style="font-weight:bold;vertical-align:top;">applications_parent</td><td style="vertical-align:top;">:</td><td><div>E:\\ssd\\7semester\\SOFTWARE EVOLUTION &amp; MAINTENANCE\\project\\web2py</div></td></tr><tr><td style="font-weight:bold;vertical-align:top;">cmd_options</td><td style="vertical-align:top;">:</td><td><div>Namespace(add_options=False, args=[], bpython=False, ca_cert=None, config=None, cron_job=False, cron_run=False, cron_threads=None, crontabs=[], errors_to_console=False, fake_migrate=False, folder=&#x27;E:\\\\ssd\\\\7semester\\\\SOFTWARE EVOLUTION &amp; MAINTENANCE\\\\project\\\\web2py&#x27;, force_migrate=False, gae=None, import_models=False, interfaces=[], ip=&#x27;127.0.0.1&#x27;, log_filename=&#x27;httpserver.log&#x27;, log_level=30, max_threads=None, min_threads=None, no_banner=False, no_gui=False, password=&#x27;******&#x27;, pid_filename=&#x27;httpserver.pid&#x27;, plain=False, port=8000, profiler_dir=None, quiet=False, request_queue_size=5, run=None, run_doctests=None, run_system_tests=False, schedulers=[], server_cert=None, server_key=None, server_name=&#x27;DESKTOP-DNURG61&#x27;, shell=None, shutdown_timeout=None, socket_timeout=5, soft_cron=False, taskbar=False, timeout=10, verbose=False, with_coverage=False, with_cron=False, with_scheduler=False)</div></td></tr><tr><td style="font-weight:bold;vertical-align:top;">db_sessions</td><td style="vertical-align:top;">:</td><td><div>set([])</div></td></tr><tr><td style="font-weight:bold;vertical-align:top;">debugging</td><td style="vertical-align:top;">:</td><td><div>False</div></td></tr><tr><td style="font-weight:bold;vertical-align:top;">gluon_parent</td><td style="vertical-align:top;">:</td><td><div>E:\\ssd\\7semester\\SOFTWARE EVOLUTION &amp; MAINTENANCE\\project\\web2py</div></td></tr><tr><td style="font-weight:bold;vertical-align:top;">is_jython</td><td style="vertical-align:top;">:</td><td><div>False</div></td></tr><tr><td style="font-weight:bold;vertical-align:top;">is_py2</td><td style="vertical-align:top;">:</td><td><div>True</div></td></tr><tr><td style="font-weight:bold;vertical-align:top;">is_pypy</td><td style="vertical-align:top;">:</td><td><div>False</div></td></tr><tr><td style="font-weight:bold;vertical-align:top;">is_source</td><td style="vertical-align:top;">:</td><td><div>False</div></td></tr><tr><td style="font-weight:bold;vertical-align:top;">local_hosts</td><td style="vertical-align:top;">:</td><td><div><table><tr><td><div>DESKTOP-DNURG61</div></td></tr><tr><td><div>fe80::5d70:4322:972b:e9ea%17</div></td></tr><tr><td><div>::ffff:127.0.0.1</div></td></tr><tr><td><div>::1</div></td></tr><tr><td><div>192.168.28.199</div></td></tr><tr><td><div>fe80::ec4f:f4d0:4e22:111b%16</div></td></tr><tr><td><div>127.0.0.1</div></td></tr><tr><td><div>192.168.56.1</div></td></tr></table></div></td></tr><tr><td style="font-weight:bold;vertical-align:top;">web2py_version</td><td style="vertical-align:top;">:</td><td><div>2.27.1-stable+timestamp.2024.09.09.05.05.15</div></td></tr></table></div></td></tr><tr><td style="font-weight:bold;vertical-align:top;">is_https</td><td style="vertical-align:top;">:</td><td><div>False</div></td></tr><tr><td style="font-weight:bold;vertical-align:top;">is_local</td><td style="vertical-align:top;">:</td><td><div>True</div></td></tr><tr><td style="font-weight:bold;vertical-align:top;">is_restful</td><td style="vertical-align:top;">:</td><td><div>False</div></td></tr><tr><td style="font-weight:bold;vertical-align:top;">is_scheduler</td><td style="vertical-align:top;">:</td><td><div>False</div></td></tr><tr><td style="font-weight:bold;vertical-align:top;">is_shell</td><td style="vertical-align:top;">:</td><td><div>False</div></td></tr><tr><td style="font-weight:bold;vertical-align:top;">method</td><td style="vertical-align:top;">:</td><td><div>POST</div></td></tr><tr><td style="font-weight:bold;vertical-align:top;">now</td><td style="vertical-align:top;">:</td><td><div>datetime.datetime(2024, 12, 5, 13, 14, 50, 331000)</div></td></tr><tr><td style="font-weight:bold;vertical-align:top;">raw_args</td><td style="vertical-align:top;">:</td><td><div></div></td></tr><tr><td style="font-weight:bold;vertical-align:top;">raw_extension</td><td style="vertical-align:top;">:</td><td><div>None</div></td></tr><tr><td style="font-weight:bold;vertical-align:top;">url</td><td style="vertical-align:top;">:</td><td><div>/admin/default/check_version</div></td></tr><tr><td style="font-weight:bold;vertical-align:top;">utcnow</td><td style="vertical-align:top;">:</td><td><div>datetime.datetime(2024, 12, 5, 5, 14, 50, 331000)</div></td></tr><tr><td style="font-weight:bold;vertical-align:top;">wsgi</td><td style="vertical-align:top;">:</td><td><div>&lt;gluon.main.LazyWSGI object at 0x0000019CBA36DB70&gt;</div></td></tr></table></div>'
tRp72
sS'frames'
p73
(lp74
(dp75
S'file'
p76
S'E:\\ssd\\7semester\\SOFTWARE EVOLUTION & MAINTENANCE\\project\\web2py\\gluon\\restricted.py'
p77
sS'dump'
p78
(dp79
S'environment'
p80
S"{'A': <class 'gluon.html.A'>, 'ANY_OF': <class 'pydal.validators.ANY_OF'>, 'ASSIGNJS': <function ASSIGNJS>, 'A_button': <function A_button>, 'B': <class 'gluon.html.B'>, 'BEAUTIFY': <class 'gluon.html.BEAUTIFY'>, 'BODY': <class 'gluon.html.BODY'>, 'BR': <class 'gluon.html.BR'>, 'BUTTON': <class 'gluon.html.BUTTON'>, 'CAT': <class 'gluon.html.CAT'>, ...}"
p81
sS'ccode'
p82
S'<code object <module> at 0000019CB6EA9230, file ...plications\\admin\\controllers/default.py", line 3>'
p83
ssS'lnum'
p84
I219
sS'lines'
p85
(dp86
I214
S'    if environment is None:'
p87
sI215
S'        environment = {}'
p88
sI216
S'    environment["__file__"] = layer'
p89
sI217
S'    environment["__name__"] = "__restricted__"'
p90
sI218
S'    try:'
p91
sI219
S'        exec(ccode, environment)'
p92
sI220
S'    except HTTP:'
p93
sI221
S'        raise'
p94
sI222
S'    except RestrictedError:'
p95
sI223
S'        # do not encapsulate (obfuscate) the original RestrictedError'
p96
ssS'call'
p97
S'(ccode=<code object <module> at 0000019CB6EA9230, file ...plications\\admin\\controllers/default.py", line 3>, environment={\'A\': <class \'gluon.html.A\'>, \'ANY_OF\': <class \'pydal.validators.ANY_OF\'>, \'ASSIGNJS\': <function ASSIGNJS>, \'A_button\': <function A_button>, \'B\': <class \'gluon.html.B\'>, \'BEAUTIFY\': <class \'gluon.html.BEAUTIFY\'>, \'BODY\': <class \'gluon.html.BODY\'>, \'BR\': <class \'gluon.html.BR\'>, \'BUTTON\': <class \'gluon.html.BUTTON\'>, \'CAT\': <class \'gluon.html.CAT\'>, ...}, layer=r\'E:\\ssd\\7semester\\SOFTWARE EVOLUTION & MAINTENANC...\\web2py\\applications\\admin\\controllers/default.py\', scode=<code object <module> at 0000019CB6EA9230, file ...plications\\admin\\controllers/default.py", line 3>)'
p98
sS'func'
p99
S'restricted'
p100
sa(dp101
g76
S'E:\\ssd\\7semester\\SOFTWARE EVOLUTION & MAINTENANCE\\project\\web2py\\applications\\admin\\controllers\\default.py'
p102
sg78
(dp103
sg84
I2032
sg85
(dp104
I2021
S'        else:'
p105
sI2022
S'            filename = "web2py.plugin.%s.w2p" % cleanpath(plugin)'
p106
sI2023
S'        if plugin_install(app, urlopen(source),'
p107
sI2024
S'                          request, filename):'
p108
sI2025
S"            session.flash = T('New plugin installed: %s', filename)"
p109
sI2026
S'        else:'
p110
sI2027
S'            session.flash = \\'
p111
sI2028
S'                T(\'unable to install plugin "%s"\', filename)'
p112
sI2029
S'        redirect(URL(f="plugins", args=[app, ]))'
p113
sI2030
S'    return dict(form=form, app=app, plugin=plugin, source=source)'
p114
ssg97
S'()'
p115
sg99
S'<module>'
p116
sa(dp117
g76
S'E:\\ssd\\7semester\\SOFTWARE EVOLUTION & MAINTENANCE\\project\\web2py\\gluon\\globals.py'
p118
sg78
(dp119
S'self'
p120
S'undefined'
p121
sS'f'
S'<function check_version>'
p122
ssg84
I463
sg85
(dp123
I458
S'        self.flash = ""  # used by the default view layout'
p124
sI459
S'        self.meta = Storage()  # used by web2py_ajax.html'
p125
sI460
S'        self.menu = []  # used by the default view layout'
p126
sI461
S'        self.files = []  # used by web2py_ajax.html'
p127
sI462
S'        self._vars = None'
p128
sI463
S'        self._caller = lambda f: f()'
p129
sI464
S'        self._view_environment = None'
p130
sI465
S'        self._custom_commit = None'
p131
sI466
S'        self._custom_rollback = None'
p132
sI467
S'        self.generic_patterns = ["*"]'
p133
ssg97
S'(f=<function check_version>)'
p134
sg99
S'<lambda>'
p135
sa(dp136
g76
S'E:\\ssd\\7semester\\SOFTWARE EVOLUTION & MAINTENANCE\\project\\web2py\\applications\\admin\\controllers\\default.py'
p137
sg78
(dp138
S'os.path.exists'
p139
S'<function exists>'
p140
sS'global os'
p141
S"<module 'os' from 'E:\\ssd\\7semester\\SOFTWARE EVOLUTION & MAINTENANCE\\project\\web2py\\os.pyc'>"
p142
sS'platform.system'
p143
S'<function system>'
p144
sS'global platform'
p145
S"<module 'platform' from 'E:\\ssd\\7semester\\SOFTWA...UTION & MAINTENANCE\\project\\web2py\\platform.pyc'>"
p146
sS').lower'
p147
g121
sS'os.path'
p148
S"<module 'ntpath' from 'E:\\ssd\\7semester\\SOFTWARE EVOLUTION & MAINTENANCE\\project\\web2py\\ntpath.pyc'>"
p149
ssg84
I183
sg85
(dp150
I178
S''
sI179
S'    if new_version in (-1, -2):'
p151
sI180
S"        return A(T('Unable to check for upgrades'), _href=WEB2PY_URL)"
p152
sI181
S'    elif not new_version:'
p153
sI182
S"        return A(T('web2py is up to date'), _href=WEB2PY_URL)"
p154
sI183
S'    elif platform.system().lower() in (\'windows\', \'win32\', \'win64\') and os.path.exists("web2py.exe"):'
p155
sI184
S"        return SPAN('You should upgrade to %s' % version.split('(')[0])"
p156
sI185
S'    else:'
p157
sI186
S"        return sp_button(URL('upgrade_web2py'), T('upgrade now to %s') % version.split('(')[0])"
p158
sI187
S''
ssg97
S'()'
p159
sg99
S'check_version'
p160
sa(dp161
g76
S'E:\\ssd\\7semester\\SOFTWARE EVOLUTION & MAINTENANCE\\project\\web2py\\platform.py'
p162
sg78
(dp163
sg84
I1298
sg85
(dp164
sg97
S'()'
p165
sg99
S'system'
p166
sa(dp167
g76
S'E:\\ssd\\7semester\\SOFTWARE EVOLUTION & MAINTENANCE\\project\\web2py\\platform.py'
p168
sg78
(dp169
sg84
I1194
sg85
(dp170
sg97
S'()'
p171
sg99
S'uname'
p172
sa(dp173
g76
S'E:\\ssd\\7semester\\SOFTWARE EVOLUTION & MAINTENANCE\\project\\web2py\\platform.py'
p174
sg78
(dp175
sg84
I670
sg85
(dp176
sg97
S"(release='', version='', csd='', ptype='')"
p177
sg99
S'win32_ver'
p178
sa(dp179
g76
S'E:\\ssd\\7semester\\SOFTWARE EVOLUTION & MAINTENANCE\\project\\web2py\\platform.py'
p180
sg78
(dp181
sg84
I626
sg85
(dp182
sg97
S'(maj=6, min=2, build=9200)'
p183
sg99
S'_get_real_winver'
p184
sa(dp185
g76
S'E:\\ssd\\7semester\\SOFTWARE EVOLUTION & MAINTENANCE\\project\\web2py\\site-packages\\PyInstaller\\loader\\pyiboot01_bootstrap.py'
p186
sg78
(dp187
sg84
I176
sg85
(dp188
sg97
S"(self=<PyInstallerWinDLL 'E:\\ssd\\7semester\\SOFTWARE EV...CE\\project\\web2py\\version', handle 0 at b6ae1588>, name=r'E:\\ssd\\7semester\\SOFTWARE EVOLUTION & MAINTENANCE\\project\\web2py\\version', *args=(), **kwargs={})"
p189
sg99
g28
sasS'pyver'
p190
S'Python 2.7.16: E:\\ssd\\7semester\\SOFTWARE EVOLUTION & MAINTENANCE\\project\\web2py\\web2py.exe (prefix: E:\\ssd\\7semester\\SOFTWARE EVOLUTION & MAINTENANCE\\project\\web2py)'
p191
sS'session'
p192
g71
(S's\x0e\x04\x00\x00<div><table><tr><td style="font-weight:bold;vertical-align:top;">authorized</td><td style="vertical-align:top;">:</td><td><div>True</div></td></tr><tr><td style="font-weight:bold;vertical-align:top;">check_version</td><td style="vertical-align:top;">:</td><td><div>False</div></td></tr><tr><td style="font-weight:bold;vertical-align:top;">hmac_key</td><td style="vertical-align:top;">:</td><td><div>4cd88a57-f5e5-4abf-a586-a3ad949c80ee</div></td></tr><tr><td style="font-weight:bold;vertical-align:top;">is_mobile</td><td style="vertical-align:top;">:</td><td><div>auto</div></td></tr><tr><td style="font-weight:bold;vertical-align:top;">last_time</td><td style="vertical-align:top;">:</td><td><div>1733375690.334</div></td></tr><tr><td style="font-weight:bold;vertical-align:top;">pam_user</td><td style="vertical-align:top;">:</td><td><div>None</div></td></tr><tr><td style="font-weight:bold;vertical-align:top;">token</td><td style="vertical-align:top;">:</td><td><div>bfc4ef94-9bca-4d86-9700-d576f3e4d3af</div></td></tr></table></div>'
tRp193
sS'etype'
p194
S"<class '__main__.PyInstallerImportError'>"
p195
sS'date'
p196
S'Thu Dec  5 13:14:54 2024'
p197
sS'response'
p198
g71
(S's\xd2\x1e\x00\x00<div><table><tr><td style="font-weight:bold;vertical-align:top;">body</td><td style="vertical-align:top;">:</td><td><div>&lt;cStringIO.StringO object at 0x0000019CBA336D50&gt;</div></td></tr><tr><td style="font-weight:bold;vertical-align:top;">cookies</td><td style="vertical-align:top;">:</td><td><div><table><tr><td style="font-weight:bold;vertical-align:top;">session_id_admin</td><td style="vertical-align:top;">:</td><td><div>127.0.0.1-ccf947ea-7434-4596-bf84-41c6f44517d6<table><tr><td style="font-weight:bold;vertical-align:top;">comment</td><td style="vertical-align:top;">:</td><td><div></div></td></tr><tr><td style="font-weight:bold;vertical-align:top;">domain</td><td style="vertical-align:top;">:</td><td><div></div></td></tr><tr><td style="font-weight:bold;vertical-align:top;">expires</td><td style="vertical-align:top;">:</td><td><div></div></td></tr><tr><td style="font-weight:bold;vertical-align:top;">httponly</td><td style="vertical-align:top;">:</td><td><div></div></td></tr><tr><td style="font-weight:bold;vertical-align:top;">max-age</td><td style="vertical-align:top;">:</td><td><div></div></td></tr><tr><td style="font-weight:bold;vertical-align:top;">path</td><td style="vertical-align:top;">:</td><td><div>/</div></td></tr><tr><td style="font-weight:bold;vertical-align:top;">samesite</td><td style="vertical-align:top;">:</td><td><div></div></td></tr><tr><td style="font-weight:bold;vertical-align:top;">secure</td><td style="vertical-align:top;">:</td><td><div></div></td></tr><tr><td style="font-weight:bold;vertical-align:top;">version</td><td style="vertical-align:top;">:</td><td><div></div></td></tr></table></div></td></tr></table></div></td></tr><tr><td style="font-weight:bold;vertical-align:top;">delimiters</td><td style="vertical-align:top;">:</td><td><div><table><tr><td><div>{{</div></td></tr><tr><td><div>}}</div></td></tr></table></div></td></tr><tr><td style="font-weight:bold;vertical-align:top;">files</td><td style="vertical-align:top;">:</td><td><div><table><tr><td><div>/admin/static/_2.27.1/plugin_multiselect/jquery.multi-select.js</div></td></tr><tr><td><div>/admin/static/_2.27.1/plugin_multiselect/multi-select.css</div></td></tr><tr><td><div>/admin/static/_2.27.1/plugin_multiselect/start.js</div></td></tr><tr><td><div>/admin/static/_2.27.1/plugin_statebutton/js/bootstrap-switch.js</div></td></tr><tr><td><div>/admin/static/_2.27.1/plugin_statebutton/css/bootstrap-switch.css</div></td></tr></table></div></td></tr><tr><td style="font-weight:bold;vertical-align:top;">flash</td><td style="vertical-align:top;">:</td><td><div></div></td></tr><tr><td style="font-weight:bold;vertical-align:top;">form_label_separator</td><td style="vertical-align:top;">:</td><td><div>: </div></td></tr><tr><td style="font-weight:bold;vertical-align:top;">formstyle</td><td style="vertical-align:top;">:</td><td><div>table3cols</div></td></tr><tr><td style="font-weight:bold;vertical-align:top;">generic_patterns</td><td style="vertical-align:top;">:</td><td><div><table><tr><td><div>*</div></td></tr></table></div></td></tr><tr><td style="font-weight:bold;vertical-align:top;">headers</td><td style="vertical-align:top;">:</td><td><div><table><tr><td style="font-weight:bold;vertical-align:top;">X-Powered-By</td><td style="vertical-align:top;">:</td><td><div>web2py</div></td></tr></table></div></td></tr><tr><td style="font-weight:bold;vertical-align:top;">menu</td><td style="vertical-align:top;">:</td><td><div><table><tr><td><div><table><tr><td><div>Site</div></td></tr><tr><td><div>False</div></td></tr><tr><td><div>/admin/default/site</div></td></tr></table></div></td></tr><tr><td><div><table><tr><td><div>Help</div></td></tr><tr><td><div>False</div></td></tr><tr><td><div>/examples/default/documentation</div></td></tr></table></div></td></tr><tr><td><div><table><tr><td><div>Logout</div></td></tr><tr><td><div>False</div></td></tr><tr><td><div>/admin/default/logout</div></td></tr></table></div></td></tr><tr><td><div><table><tr><td><div>Debug</div></td></tr><tr><td><div>False</div></td></tr><tr><td><div>/admin/debug/interact</div></td></tr></table></div></td></tr></table></div></td></tr><tr><td style="font-weight:bold;vertical-align:top;">meta</td><td style="vertical-align:top;">:</td><td><div><table></table></div></td></tr><tr><td style="font-weight:bold;vertical-align:top;">models_to_run</td><td style="vertical-align:top;">:</td><td><div><table><tr><td><div>^\\w+\\.py$</div></td></tr><tr><td><div>^default/\\w+\\.py$</div></td></tr><tr><td><div>^default/check_version/\\w+\\.py$</div></td></tr></table></div></td></tr><tr><td style="font-weight:bold;vertical-align:top;">postprocessing</td><td style="vertical-align:top;">:</td><td><div><table></table></div></td></tr><tr><td style="font-weight:bold;vertical-align:top;">session_client</td><td style="vertical-align:top;">:</td><td><div>127.0.0.1</div></td></tr><tr><td style="font-weight:bold;vertical-align:top;">session_cookie_compression_level</td><td style="vertical-align:top;">:</td><td><div>None</div></td></tr><tr><td style="font-weight:bold;vertical-align:top;">session_cookie_expires</td><td style="vertical-align:top;">:</td><td><div>None</div></td></tr><tr><td style="font-weight:bold;vertical-align:top;">session_data_name</td><td style="vertical-align:top;">:</td><td><div>session_data_admin</div></td></tr><tr><td style="font-weight:bold;vertical-align:top;">session_file</td><td style="vertical-align:top;">:</td><td><div>&lt;open file &#x27;E:\\\\ssd\\\\7semester\\\\SOFTWARE EVOLUTION &amp; MAINTENANCE\\\\project\\\\web2py\\\\applications\\\\admin\\\\sessions\\\\1e1\\\\021\\\\127.0.0.1-ccf947ea-7434-4596-bf84-41c6f44517d6&#x27;, mode &#x27;rb+&#x27; at 0x0000019CBA3CCAE0&gt;</div></td></tr><tr><td style="font-weight:bold;vertical-align:top;">session_filename</td><td style="vertical-align:top;">:</td><td><div>E:\\ssd\\7semester\\SOFTWARE EVOLUTION &amp; MAINTENANCE\\project\\web2py\\applications\\admin\\sessions\\127.0.0.1-ccf947ea-7434-4596-bf84-41c6f44517d6</div></td></tr><tr><td style="font-weight:bold;vertical-align:top;">session_hash</td><td style="vertical-align:top;">:</td><td><div>fdb0f4c5ec6b00c340efbb664d7d8952</div></td></tr><tr><td style="font-weight:bold;vertical-align:top;">session_id</td><td style="vertical-align:top;">:</td><td><div>127.0.0.1-ccf947ea-7434-4596-bf84-41c6f44517d6</div></td></tr><tr><td style="font-weight:bold;vertical-align:top;">session_id_name</td><td style="vertical-align:top;">:</td><td><div>session_id_admin</div></td></tr><tr><td style="font-weight:bold;vertical-align:top;">session_locked</td><td style="vertical-align:top;">:</td><td><div>False</div></td></tr><tr><td style="font-weight:bold;vertical-align:top;">session_masterapp</td><td style="vertical-align:top;">:</td><td><div>admin</div></td></tr><tr><td style="font-weight:bold;vertical-align:top;">session_new</td><td style="vertical-align:top;">:</td><td><div>False</div></td></tr><tr><td style="font-weight:bold;vertical-align:top;">session_storage_type</td><td style="vertical-align:top;">:</td><td><div>file</div></td></tr><tr><td style="font-weight:bold;vertical-align:top;">static_version</td><td style="vertical-align:top;">:</td><td><div>2.27.1</div></td></tr><tr><td style="font-weight:bold;vertical-align:top;">static_version_urls</td><td style="vertical-align:top;">:</td><td><div>True</div></td></tr><tr><td style="font-weight:bold;vertical-align:top;">status</td><td style="vertical-align:top;">:</td><td><div>200</div></td></tr><tr><td style="font-weight:bold;vertical-align:top;">subtitle</td><td style="vertical-align:top;">:</td><td><div>admin</div></td></tr><tr><td style="font-weight:bold;vertical-align:top;">title</td><td style="vertical-align:top;">:</td><td><div>check_version </div></td></tr><tr><td style="font-weight:bold;vertical-align:top;">view</td><td style="vertical-align:top;">:</td><td><div>default/check_version.html</div></td></tr></table></div>'
tRp199
sS'locals'
p200
(dp201
S'kwargs'
p202
S'{}'
p203
sS'self'
p204
S"<PyInstallerWinDLL 'E:\\ssd\\7semester\\SOFTWARE EV...CE\\project\\web2py\\version', handle 0 at b6ae1588>"
p205
sg54
S'()'
p206
sS'base_error'
p207
S"WindowsError(126, 'The specified module could not be found')"
p208
sS'name'
p209
S"r'E:\\ssd\\7semester\\SOFTWARE EVOLUTION & MAINTENANCE\\project\\web2py\\version'"
p210
sssS'traceback'
p211
S'Traceback (most recent call last):\n  File "E:\\ssd\\7semester\\SOFTWARE EVOLUTION & MAINTENANCE\\project\\web2py\\gluon\\restricted.py", line 219, in restricted\n    exec(ccode, environment)\n  File "E:\\ssd\\7semester\\SOFTWARE EVOLUTION & MAINTENANCE\\project\\web2py\\applications\\admin\\controllers/default.py", line 2032, in <module>\n  File "E:\\ssd\\7semester\\SOFTWARE EVOLUTION & MAINTENANCE\\project\\web2py\\gluon\\globals.py", line 463, in <lambda>\n    self._caller = lambda f: f()\n  File "E:\\ssd\\7semester\\SOFTWARE EVOLUTION & MAINTENANCE\\project\\web2py\\applications\\admin\\controllers/default.py", line 183, in check_version\n    elif platform.system().lower() in (\'windows\', \'win32\', \'win64\') and os.path.exists("web2py.exe"):\n  File "platform.py", line 1298, in system\n  File "platform.py", line 1194, in uname\n  File "platform.py", line 670, in win32_ver\n  File "platform.py", line 626, in _get_real_winver\n  File "site-packages\\PyInstaller\\loader\\pyiboot01_bootstrap.py", line 176, in __init__\nPyInstallerImportError: Failed to load dynlib/dll \'E:\\\\ssd\\\\7semester\\\\SOFTWARE EVOLUTION & MAINTENANCE\\\\project\\\\web2py\\\\version\'. Most probably this dynlib/dll was not found when the application was frozen.\n'
p212
s.